(dp0
I0
(I0
I0
I73
F109.5
tp1
sI1
(I73
I0
I73
F109.5
tp2
sI2
(I146
I0
I73
F109.5
tp3
sI3
(I219
I0
I73
F109.5
tp4
sI4
(I292
I0
I73
F109.5
tp5
sI5
(I365
I0
I73
F109.5
tp6
sI6
(I438
I0
I73
F109.5
tp7
sI7
(I511
I0
I73
F109.5
tp8
sI8
(I584
I0
I73
F109.5
tp9
sI9
(I657
I0
I73
F109.5
tp10
sI10
(I730
I0
I73
F109.5
tp11
sI11
(I803
I0
I73
F109.5
tp12
sI12
(I876
I0
I73
F109.5
tp13
sI13
(I949
I0
I73
F109.5
tp14
sI14
(I1022
I0
I73
F109.5
tp15
s.