(dp0
I0
(I0
F109.5
I73
F109.5
tp1
sI1
(I73
F109.5
I73
F109.5
tp2
sI2
(I146
F109.5
I73
F109.5
tp3
sI3
(I219
F109.5
I73
F109.5
tp4
sI4
(I292
F109.5
I73
F109.5
tp5
sI5
(I365
F109.5
I73
F109.5
tp6
sI6
(I438
F109.5
I73
F109.5
tp7
sI7
(I511
F109.5
I73
F109.5
tp8
sI8
(I584
F109.5
I73
F109.5
tp9
sI9
(I657
F109.5
I73
F109.5
tp10
sI10
(I730
F109.5
I73
F109.5
tp11
sI11
(I803
F109.5
I73
F109.5
tp12
sI12
(I876
F109.5
I73
F109.5
tp13
sI13
(I949
F109.5
I73
F109.5
tp14
sI14
(I1022
F109.5
I73
F109.5
tp15
s.